ccopy_reg
_reconstructor
p0
(c__main__
Phonebook_Dict
p1
c__builtin__
object
p2
Ntp3
Rp4
(dp5
S'contact'
p6
(lp7
(dp8
S'phone'
p9
(dp10
S'cell'
p11
S'493-234-3455'
p12
sS'home'
p13
S'329-585-3834'
p14
sS'work'
p15
S'234-563-5849'
p16
ssS'name'
p17
S'gregory'
p18
sS'email'
p19
S'greg@hotmail.com'
p20
sa(dp21
g9
(dp22
g11
S'966-834-2349'
p23
sg13
S'455-345-9797'
p24
sg15
S'345-654-7666'
p25
ssg17
S'lisa'
p26
sg19
S'lisaB@yahoo.com'
p27
sasb.